; ModuleID = '8/102.c'
source_filename = "8/102.c"
target datalayout = "e-m:e-p270:32:32-p271:32:32-p272:64:64-i64:64-f80:128-n8:16:32:64-S128"
target triple = "x86_64-pc-linux-gnu"

@.str = private unnamed_addr constant [5 x i8] c"%d%d\00", align 1
@l = common dso_local global i32 0, align 4
@k = common dso_local global i32 0, align 4
@i = common dso_local global i32 0, align 4
@.str.1 = private unnamed_addr constant [3 x i8] c"%d\00", align 1
@j = common dso_local global i32 0, align 4
@m = common dso_local global i32 0, align 4
@.str.2 = private unnamed_addr constant [4 x i8] c"%d \00", align 1
@.str.3 = private unnamed_addr constant [4 x i8] c"%d\0A\00", align 1
@b = common dso_local global [20 x i32] zeroinitializer, align 16
@c = common dso_local global [20 x i32] zeroinitializer, align 16

; Function Attrs: noinline nounwind uwtable
define dso_local void @f() #0 {
  %1 = call i32 (i8*, ...) @__isoc99_scanf(i8* getelementptr inbounds ([5 x i8], [5 x i8]* @.str, i64 0, i64 0), i32* @l, i32* @k)
  ret void
}

declare dso_local i32 @__isoc99_scanf(i8*, ...) #1

; Function Attrs: noinline nounwind uwtable
define dso_local void @g(i32* %0, i32 %1) #0 {
  %3 = alloca i32*, align 8
  %4 = alloca i32, align 4
  store i32* %0, i32** %3, align 8
  store i32 %1, i32* %4, align 4
  store i32 0, i32* @i, align 4
  br label %5

5:                                                ; preds = %15, %2
  %6 = load i32, i32* @i, align 4
  %7 = load i32, i32* %4, align 4
  %8 = icmp slt i32 %6, %7
  br i1 %8, label %9, label %18

9:                                                ; preds = %5
  %10 = load i32*, i32** %3, align 8
  %11 = load i32, i32* @i, align 4
  %12 = sext i32 %11 to i64
  %13 = getelementptr inbounds i32, i32* %10, i64 %12
  %14 = call i32 (i8*, ...) @__isoc99_scanf(i8* getelementptr inbounds ([3 x i8], [3 x i8]* @.str.1, i64 0, i64 0), i32* %13)
  br label %15

15:                                               ; preds = %9
  %16 = load i32, i32* @i, align 4
  %17 = add nsw i32 %16, 1
  store i32 %17, i32* @i, align 4
  br label %5

18:                                               ; preds = %5
  ret void
}

; Function Attrs: noinline nounwind uwtable
define dso_local void @h(i32* %0, i32 %1, i32 %2) #0 {
  %4 = alloca i32*, align 8
  %5 = alloca i32, align 4
  %6 = alloca i32, align 4
  store i32* %0, i32** %4, align 8
  store i32 %1, i32* %5, align 4
  store i32 %2, i32* %6, align 4
  store i32 0, i32* @j, align 4
  br label %7

7:                                                ; preds = %60, %3
  %8 = load i32, i32* @j, align 4
  %9 = load i32, i32* %5, align 4
  %10 = sub nsw i32 %9, 1
  %11 = icmp slt i32 %8, %10
  br i1 %11, label %12, label %63

12:                                               ; preds = %7
  store i32 0, i32* @i, align 4
  br label %13

13:                                               ; preds = %56, %12
  %14 = load i32, i32* @i, align 4
  %15 = load i32, i32* %5, align 4
  %16 = sub nsw i32 %15, 1
  %17 = load i32, i32* @j, align 4
  %18 = sub nsw i32 %16, %17
  %19 = icmp slt i32 %14, %18
  br i1 %19, label %20, label %59

20:                                               ; preds = %13
  %21 = load i32*, i32** %4, align 8
  %22 = load i32, i32* @i, align 4
  %23 = sext i32 %22 to i64
  %24 = getelementptr inbounds i32, i32* %21, i64 %23
  %25 = load i32, i32* %24, align 4
  %26 = load i32*, i32** %4, align 8
  %27 = load i32, i32* @i, align 4
  %28 = add nsw i32 %27, 1
  %29 = sext i32 %28 to i64
  %30 = getelementptr inbounds i32, i32* %26, i64 %29
  %31 = load i32, i32* %30, align 4
  %32 = icmp sgt i32 %25, %31
  br i1 %32, label %33, label %55

33:                                               ; preds = %20
  %34 = load i32*, i32** %4, align 8
  %35 = load i32, i32* @i, align 4
  %36 = sext i32 %35 to i64
  %37 = getelementptr inbounds i32, i32* %34, i64 %36
  %38 = load i32, i32* %37, align 4
  store i32 %38, i32* @m, align 4
  %39 = load i32*, i32** %4, align 8
  %40 = load i32, i32* @i, align 4
  %41 = add nsw i32 %40, 1
  %42 = sext i32 %41 to i64
  %43 = getelementptr inbounds i32, i32* %39, i64 %42
  %44 = load i32, i32* %43, align 4
  %45 = load i32*, i32** %4, align 8
  %46 = load i32, i32* @i, align 4
  %47 = sext i32 %46 to i64
  %48 = getelementptr inbounds i32, i32* %45, i64 %47
  store i32 %44, i32* %48, align 4
  %49 = load i32, i32* @m, align 4
  %50 = load i32*, i32** %4, align 8
  %51 = load i32, i32* @i, align 4
  %52 = add nsw i32 %51, 1
  %53 = sext i32 %52 to i64
  %54 = getelementptr inbounds i32, i32* %50, i64 %53
  store i32 %49, i32* %54, align 4
  br label %55

55:                                               ; preds = %33, %20
  br label %56

56:                                               ; preds = %55
  %57 = load i32, i32* @i, align 4
  %58 = add nsw i32 %57, 1
  store i32 %58, i32* @i, align 4
  br label %13

59:                                               ; preds = %13
  br label %60

60:                                               ; preds = %59
  %61 = load i32, i32* @j, align 4
  %62 = add nsw i32 %61, 1
  store i32 %62, i32* @j, align 4
  br label %7

63:                                               ; preds = %7
  store i32 0, i32* @i, align 4
  br label %64

64:                                               ; preds = %76, %63
  %65 = load i32, i32* @i, align 4
  %66 = load i32, i32* %5, align 4
  %67 = sub nsw i32 %66, 1
  %68 = icmp slt i32 %65, %67
  br i1 %68, label %69, label %79

69:                                               ; preds = %64
  %70 = load i32*, i32** %4, align 8
  %71 = load i32, i32* @i, align 4
  %72 = sext i32 %71 to i64
  %73 = getelementptr inbounds i32, i32* %70, i64 %72
  %74 = load i32, i32* %73, align 4
  %75 = call i32 (i8*, ...) @printf(i8* getelementptr inbounds ([4 x i8], [4 x i8]* @.str.2, i64 0, i64 0), i32 %74)
  br label %76

76:                                               ; preds = %69
  %77 = load i32, i32* @i, align 4
  %78 = add nsw i32 %77, 1
  store i32 %78, i32* @i, align 4
  br label %64

79:                                               ; preds = %64
  %80 = load i32, i32* %6, align 4
  %81 = icmp eq i32 %80, 1
  br i1 %81, label %82, label %90

82:                                               ; preds = %79
  %83 = load i32*, i32** %4, align 8
  %84 = load i32, i32* %5, align 4
  %85 = sub nsw i32 %84, 1
  %86 = sext i32 %85 to i64
  %87 = getelementptr inbounds i32, i32* %83, i64 %86
  %88 = load i32, i32* %87, align 4
  %89 = call i32 (i8*, ...) @printf(i8* getelementptr inbounds ([4 x i8], [4 x i8]* @.str.2, i64 0, i64 0), i32 %88)
  br label %90

90:                                               ; preds = %82, %79
  %91 = load i32, i32* %6, align 4
  %92 = icmp eq i32 %91, 2
  br i1 %92, label %93, label %101

93:                                               ; preds = %90
  %94 = load i32*, i32** %4, align 8
  %95 = load i32, i32* %5, align 4
  %96 = sub nsw i32 %95, 1
  %97 = sext i32 %96 to i64
  %98 = getelementptr inbounds i32, i32* %94, i64 %97
  %99 = load i32, i32* %98, align 4
  %100 = call i32 (i8*, ...) @printf(i8* getelementptr inbounds ([4 x i8], [4 x i8]* @.str.3, i64 0, i64 0), i32 %99)
  br label %101

101:                                              ; preds = %93, %90
  ret void
}

declare dso_local i32 @printf(i8*, ...) #1

; Function Attrs: noinline nounwind uwtable
define dso_local void @main() #0 {
  call void @f()
  %1 = load i32, i32* @l, align 4
  call void @g(i32* getelementptr inbounds ([20 x i32], [20 x i32]* @b, i64 0, i64 0), i32 %1)
  %2 = load i32, i32* @k, align 4
  call void @g(i32* getelementptr inbounds ([20 x i32], [20 x i32]* @c, i64 0, i64 0), i32 %2)
  %3 = load i32, i32* @l, align 4
  call void @h(i32* getelementptr inbounds ([20 x i32], [20 x i32]* @b, i64 0, i64 0), i32 %3, i32 1)
  %4 = load i32, i32* @k, align 4
  call void @h(i32* getelementptr inbounds ([20 x i32], [20 x i32]* @c, i64 0, i64 0), i32 %4, i32 2)
  ret void
}


!llvm.module.flags = !{!0}
!llvm.ident = !{!1}

!0 = !{i32 1, !"wchar_size", i32 4}
!1 = !{!"clang version 10.0.0-4ubuntu1 "}
